target datalayout = "e-m:e-p270:32:32-p271:32:32-p272:64:64-i64:64-i128:128-f80:128-n8:16:32:64-S128"
target triple = "x86_64-pc-linux-gnu"

%struct.exr_attr_box2i_t = type { %struct.exr_attr_v2i_t, %struct.exr_attr_v2i_t }
%struct.exr_attr_v2i_t = type { i32, i32 }
%struct._priv_exr_context_t = type { i8, i8, i8, i8, i8, i8, i8, i8, %struct.exr_attr_string_t, %struct.exr_attr_string_t, ptr, ptr, ptr, ptr, ptr, ptr, ptr, ptr, i32, i32, i32, i32, i32, float, ptr, ptr, ptr, i64, ptr, ptr, i64, i32, i32, i32, i32, %struct._priv_exr_part_t, ptr, ptr, %struct.exr_attribute_list, %union.pthread_mutex_t, i8, i8, [2 x i8], i32 }
%struct.exr_attr_string_t = type { i32, i32, ptr }
%struct._priv_exr_part_t = type { i32, i32, %struct.exr_attribute_list, ptr, ptr, ptr, ptr, ptr, ptr, ptr, ptr, ptr, ptr, ptr, ptr, ptr, ptr, %struct.exr_attr_box2i_t, %struct.exr_attr_box2i_t, i32, i32, i32, float, i32, i32, ptr, ptr, ptr, ptr, i64, i16, i16, i32, i64, i64 }
%struct.exr_attribute_list = type { i32, i32, ptr, ptr }
%union.pthread_mutex_t = type { %struct.__pthread_mutex_s }
%struct.__pthread_mutex_s = type { i32, i32, i32, i32, i32, i16, i16, %struct.__pthread_internal_list }
%struct.__pthread_internal_list = type { ptr, ptr }

; Function Attrs: nounwind uwtable
define hidden i32 @internal_exr_validate_read_part(ptr noundef %0, ptr noundef %1) #0 {
  %3 = alloca i32, align 4
  %4 = alloca ptr, align 8
  %5 = alloca ptr, align 8
  %6 = alloca i32, align 4
  %7 = alloca i32, align 4
  store ptr %0, ptr %4, align 8, !tbaa !3
  store ptr %1, ptr %5, align 8, !tbaa !8
  call void @llvm.lifetime.start.p0(i64 4, ptr %6) #7
  %8 = load ptr, ptr %4, align 8, !tbaa !3
  %9 = load ptr, ptr %5, align 8, !tbaa !8
  %10 = load ptr, ptr %4, align 8, !tbaa !3
  %11 = getelementptr inbounds nuw %struct._priv_exr_context_t, ptr %10, i32 0, i32 6
  %12 = load i8, ptr %11, align 2, !tbaa !10
  %13 = icmp ne i8 %12, 0
  %14 = xor i1 %13, true
  %15 = zext i1 %14 to i32
  %16 = call i32 @validate_req_attr(ptr noundef %8, ptr noundef %9, i32 noundef %15)
  store i32 %16, ptr %6, align 4, !tbaa !25
  %17 = load i32, ptr %6, align 4, !tbaa !25
  %18 = icmp ne i32 %17, 0
  br i1 %18, label %19, label %21

19:                                               ; preds = %2
  %20 = load i32, ptr %6, align 4, !tbaa !25
  store i32 %20, ptr %3, align 4
  store i32 1, ptr %7, align 4
  br label %62

21:                                               ; preds = %2
  %22 = load ptr, ptr %4, align 8, !tbaa !3
  %23 = load ptr, ptr %5, align 8, !tbaa !8
  %24 = call i32 @validate_image_dimensions(ptr noundef %22, ptr noundef %23)
  store i32 %24, ptr %6, align 4, !tbaa !25
  %25 = load i32, ptr %6, align 4, !tbaa !25
  %26 = icmp ne i32 %25, 0
  br i1 %26, label %27, label %29

27:                                               ; preds = %21
  %28 = load i32, ptr %6, align 4, !tbaa !25
  store i32 %28, ptr %3, align 4
  store i32 1, ptr %7, align 4
  br label %62

29:                                               ; preds = %21
  %30 = load ptr, ptr %4, align 8, !tbaa !3
  %31 = load ptr, ptr %5, align 8, !tbaa !8
  %32 = call i32 @validate_channels(ptr noundef %30, ptr noundef %31)
  store i32 %32, ptr %6, align 4, !tbaa !25
  %33 = load i32, ptr %6, align 4, !tbaa !25
  %34 = icmp ne i32 %33, 0
  br i1 %34, label %35, label %37

35:                                               ; preds = %29
  %36 = load i32, ptr %6, align 4, !tbaa !25
  store i32 %36, ptr %3, align 4
  store i32 1, ptr %7, align 4
  br label %62

37:                                               ; preds = %29
  %38 = load ptr, ptr %4, align 8, !tbaa !3
  %39 = load ptr, ptr %5, align 8, !tbaa !8
  %40 = call i32 @validate_part_type(ptr noundef %38, ptr noundef %39)
  store i32 %40, ptr %6, align 4, !tbaa !25
  %41 = load i32, ptr %6, align 4, !tbaa !25
  %42 = icmp ne i32 %41, 0
  br i1 %42, label %43, label %45

43:                                               ; preds = %37
  %44 = load i32, ptr %6, align 4, !tbaa !25
  store i32 %44, ptr %3, align 4
  store i32 1, ptr %7, align 4
  br label %62

45:                                               ; preds = %37
  %46 = load ptr, ptr %4, align 8, !tbaa !3
  %47 = load ptr, ptr %5, align 8, !tbaa !8
  %48 = call i32 @validate_tile_data(ptr noundef %46, ptr noundef %47)
  store i32 %48, ptr %6, align 4, !tbaa !25
  %49 = load i32, ptr %6, align 4, !tbaa !25
  %50 = icmp ne i32 %49, 0
  br i1 %50, label %51, label %53

51:                                               ; preds = %45
  %52 = load i32, ptr %6, align 4, !tbaa !25
  store i32 %52, ptr %3, align 4
  store i32 1, ptr %7, align 4
  br label %62

53:                                               ; preds = %45
  %54 = load ptr, ptr %4, align 8, !tbaa !3
  %55 = load ptr, ptr %5, align 8, !tbaa !8
  %56 = call i32 @validate_deep_data(ptr noundef %54, ptr noundef %55)
  store i32 %56, ptr %6, align 4, !tbaa !25
  %57 = load i32, ptr %6, align 4, !tbaa !25
  %58 = icmp ne i32 %57, 0
  br i1 %58, label %59, label %61

59:                                               ; preds = %53
  %60 = load i32, ptr %6, align 4, !tbaa !25
  store i32 %60, ptr %3, align 4
  store i32 1, ptr %7, align 4
  br label %62

61:                                               ; preds = %53
  store i32 0, ptr %3, align 4
  store i32 1, ptr %7, align 4
  br label %62

62:                                               ; preds = %61, %59, %51, %43, %35, %27, %19
  call void @llvm.lifetime.end.p0(i64 4, ptr %6) #7
  %63 = load i32, ptr %3, align 4
  ret i32 %63
}