; Function Attrs: nounwind uwtable
define hidden i32 @internal_exr_validate_read_part(ptr noundef %0, ptr noundef %1) local_unnamed_addr #0 {
  %3 = getelementptr inbounds nuw i8, ptr %0, i64 6
  %4 = load i8, ptr %3, align 2, !tbaa !3
  %.not = icmp eq i8 %4, 0
  %5 = zext i1 %.not to i32
  %6 = tail call fastcc i32 @validate_req_attr(ptr noundef %0, ptr noundef %1, i32 noundef %5)
  %.not31 = icmp eq i32 %6, 0
  br i1 %.not31, label %7, label %17

7:                                                ; preds = %2
  %8 = tail call fastcc i32 @validate_image_dimensions(ptr noundef nonnull %0, ptr noundef %1)
  %.not32 = icmp eq i32 %8, 0
  br i1 %.not32, label %9, label %17

9:                                                ; preds = %7
  %10 = tail call fastcc i32 @validate_channels(ptr noundef nonnull %0, ptr noundef %1)
  %.not33 = icmp eq i32 %10, 0
  br i1 %.not33, label %11, label %17

11:                                               ; preds = %9
  %12 = tail call fastcc i32 @validate_part_type(ptr noundef nonnull %0, ptr noundef %1)
  %.not34 = icmp eq i32 %12, 0
  br i1 %.not34, label %13, label %17

13:                                               ; preds = %11
  %14 = tail call fastcc i32 @validate_tile_data(ptr noundef nonnull %0, ptr noundef %1)
  %.not35 = icmp eq i32 %14, 0
  br i1 %.not35, label %15, label %17

15:                                               ; preds = %13
  %16 = tail call fastcc i32 @validate_deep_data(ptr noundef nonnull %0, ptr noundef %1)
  br label %17

17:                                               ; preds = %15, %13, %11, %9, %7, %2
  %.0 = phi i32 [ %6, %2 ], [ %8, %7 ], [ %10, %9 ], [ %12, %11 ], [ %14, %13 ], [ %16, %15 ]
  ret i32 %.0
}